; ModuleID = '37/1534.c'
source_filename = "37/1534.c"
target datalayout = "e-m:e-p270:32:32-p271:32:32-p272:64:64-i64:64-f80:128-n8:16:32:64-S128"
target triple = "x86_64-pc-linux-gnu"

@.str = private unnamed_addr constant [3 x i8] c"%d\00", align 1
@.str.1 = private unnamed_addr constant [3 x i8] c"%s\00", align 1
@.str.2 = private unnamed_addr constant [4 x i8] c"no\0A\00", align 1
@.str.3 = private unnamed_addr constant [4 x i8] c"%c\0A\00", align 1

; Function Attrs: noinline nounwind uwtable
define dso_local i32 @main() #0 {
  %1 = alloca i32, align 4
  %2 = alloca i32, align 4
  %3 = alloca [10000 x i32], align 16
  %4 = alloca [1000 x [10000 x i8]], align 16
  %5 = alloca i32, align 4
  %6 = alloca i32, align 4
  %7 = alloca i32, align 4
  %8 = alloca i32, align 4
  %9 = alloca i32, align 4
  %10 = alloca i32, align 4
  %11 = alloca i32, align 4
  store i32 0, i32* %1, align 4
  store i32 0, i32* %5, align 4
  %12 = call i32 (i8*, ...) @__isoc99_scanf(i8* getelementptr inbounds ([3 x i8], [3 x i8]* @.str, i64 0, i64 0), i32* %2)
  store i32 0, i32* %6, align 4
  br label %13

13:                                               ; preds = %24, %0
  %14 = load i32, i32* %6, align 4
  %15 = load i32, i32* %2, align 4
  %16 = sub nsw i32 %15, 1
  %17 = icmp sle i32 %14, %16
  br i1 %17, label %18, label %27

18:                                               ; preds = %13
  %19 = load i32, i32* %6, align 4
  %20 = sext i32 %19 to i64
  %21 = getelementptr inbounds [1000 x [10000 x i8]], [1000 x [10000 x i8]]* %4, i64 0, i64 %20
  %22 = getelementptr inbounds [10000 x i8], [10000 x i8]* %21, i64 0, i64 0
  %23 = call i32 (i8*, ...) @__isoc99_scanf(i8* getelementptr inbounds ([3 x i8], [3 x i8]* @.str.1, i64 0, i64 0), i8* %22)
  br label %24

24:                                               ; preds = %18
  %25 = load i32, i32* %6, align 4
  %26 = add nsw i32 %25, 1
  store i32 %26, i32* %6, align 4
  br label %13

27:                                               ; preds = %13
  store i32 0, i32* %7, align 4
  br label %28

28:                                               ; preds = %158, %27
  %29 = load i32, i32* %7, align 4
  %30 = load i32, i32* %2, align 4
  %31 = sub nsw i32 %30, 1
  %32 = icmp sle i32 %29, %31
  br i1 %32, label %33, label %161

33:                                               ; preds = %28
  store i32 0, i32* %8, align 4
  br label %34

34:                                               ; preds = %87, %33
  %35 = load i32, i32* %8, align 4
  %36 = sext i32 %35 to i64
  %37 = load i32, i32* %7, align 4
  %38 = sext i32 %37 to i64
  %39 = getelementptr inbounds [1000 x [10000 x i8]], [1000 x [10000 x i8]]* %4, i64 0, i64 %38
  %40 = getelementptr inbounds [10000 x i8], [10000 x i8]* %39, i64 0, i64 0
  %41 = call i64 @strlen(i8* %40) #3
  %42 = sub i64 %41, 1
  %43 = icmp ule i64 %36, %42
  br i1 %43, label %44, label %90

44:                                               ; preds = %34
  %45 = load i32, i32* %8, align 4
  %46 = sext i32 %45 to i64
  %47 = getelementptr inbounds [10000 x i32], [10000 x i32]* %3, i64 0, i64 %46
  store i32 0, i32* %47, align 4
  store i32 0, i32* %9, align 4
  br label %48

48:                                               ; preds = %83, %44
  %49 = load i32, i32* %9, align 4
  %50 = sext i32 %49 to i64
  %51 = load i32, i32* %7, align 4
  %52 = sext i32 %51 to i64
  %53 = getelementptr inbounds [1000 x [10000 x i8]], [1000 x [10000 x i8]]* %4, i64 0, i64 %52
  %54 = getelementptr inbounds [10000 x i8], [10000 x i8]* %53, i64 0, i64 0
  %55 = call i64 @strlen(i8* %54) #3
  %56 = sub i64 %55, 1
  %57 = icmp ule i64 %50, %56
  br i1 %57, label %58, label %86

58:                                               ; preds = %48
  %59 = load i32, i32* %7, align 4
  %60 = sext i32 %59 to i64
  %61 = getelementptr inbounds [1000 x [10000 x i8]], [1000 x [10000 x i8]]* %4, i64 0, i64 %60
  %62 = load i32, i32* %8, align 4
  %63 = sext i32 %62 to i64
  %64 = getelementptr inbounds [10000 x i8], [10000 x i8]* %61, i64 0, i64 %63
  %65 = load i8, i8* %64, align 1
  %66 = sext i8 %65 to i32
  %67 = load i32, i32* %7, align 4
  %68 = sext i32 %67 to i64
  %69 = getelementptr inbounds [1000 x [10000 x i8]], [1000 x [10000 x i8]]* %4, i64 0, i64 %68
  %70 = load i32, i32* %9, align 4
  %71 = sext i32 %70 to i64
  %72 = getelementptr inbounds [10000 x i8], [10000 x i8]* %69, i64 0, i64 %71
  %73 = load i8, i8* %72, align 1
  %74 = sext i8 %73 to i32
  %75 = icmp eq i32 %66, %74
  br i1 %75, label %76, label %82

76:                                               ; preds = %58
  %77 = load i32, i32* %8, align 4
  %78 = sext i32 %77 to i64
  %79 = getelementptr inbounds [10000 x i32], [10000 x i32]* %3, i64 0, i64 %78
  %80 = load i32, i32* %79, align 4
  %81 = add nsw i32 %80, 1
  store i32 %81, i32* %79, align 4
  br label %82

82:                                               ; preds = %76, %58
  br label %83

83:                                               ; preds = %82
  %84 = load i32, i32* %9, align 4
  %85 = add nsw i32 %84, 1
  store i32 %85, i32* %9, align 4
  br label %48

86:                                               ; preds = %48
  br label %87

87:                                               ; preds = %86
  %88 = load i32, i32* %8, align 4
  %89 = add nsw i32 %88, 1
  store i32 %89, i32* %8, align 4
  br label %34

90:                                               ; preds = %34
  store i32 0, i32* %10, align 4
  br label %91

91:                                               ; preds = %111, %90
  %92 = load i32, i32* %10, align 4
  %93 = sext i32 %92 to i64
  %94 = load i32, i32* %7, align 4
  %95 = sext i32 %94 to i64
  %96 = getelementptr inbounds [1000 x [10000 x i8]], [1000 x [10000 x i8]]* %4, i64 0, i64 %95
  %97 = getelementptr inbounds [10000 x i8], [10000 x i8]* %96, i64 0, i64 0
  %98 = call i64 @strlen(i8* %97) #3
  %99 = sub i64 %98, 1
  %100 = icmp ule i64 %93, %99
  br i1 %100, label %101, label %114

101:                                              ; preds = %91
  %102 = load i32, i32* %10, align 4
  %103 = sext i32 %102 to i64
  %104 = getelementptr inbounds [10000 x i32], [10000 x i32]* %3, i64 0, i64 %103
  %105 = load i32, i32* %104, align 4
  %106 = icmp ne i32 %105, 1
  br i1 %106, label %107, label %110

107:                                              ; preds = %101
  %108 = load i32, i32* %5, align 4
  %109 = add nsw i32 %108, 1
  store i32 %109, i32* %5, align 4
  br label %110

110:                                              ; preds = %107, %101
  br label %111

111:                                              ; preds = %110
  %112 = load i32, i32* %10, align 4
  %113 = add nsw i32 %112, 1
  store i32 %113, i32* %10, align 4
  br label %91

114:                                              ; preds = %91
  %115 = load i32, i32* %5, align 4
  %116 = sext i32 %115 to i64
  %117 = load i32, i32* %7, align 4
  %118 = sext i32 %117 to i64
  %119 = getelementptr inbounds [1000 x [10000 x i8]], [1000 x [10000 x i8]]* %4, i64 0, i64 %118
  %120 = getelementptr inbounds [10000 x i8], [10000 x i8]* %119, i64 0, i64 0
  %121 = call i64 @strlen(i8* %120) #3
  %122 = icmp eq i64 %116, %121
  br i1 %122, label %123, label %125

123:                                              ; preds = %114
  %124 = call i32 (i8*, ...) @printf(i8* getelementptr inbounds ([4 x i8], [4 x i8]* @.str.2, i64 0, i64 0))
  store i32 0, i32* %5, align 4
  br label %157

125:                                              ; preds = %114
  store i32 0, i32* %11, align 4
  br label %126

126:                                              ; preds = %153, %125
  %127 = load i32, i32* %11, align 4
  %128 = sext i32 %127 to i64
  %129 = load i32, i32* %7, align 4
  %130 = sext i32 %129 to i64
  %131 = getelementptr inbounds [1000 x [10000 x i8]], [1000 x [10000 x i8]]* %4, i64 0, i64 %130
  %132 = getelementptr inbounds [10000 x i8], [10000 x i8]* %131, i64 0, i64 0
  %133 = call i64 @strlen(i8* %132) #3
  %134 = sub i64 %133, 1
  %135 = icmp ule i64 %128, %134
  br i1 %135, label %136, label %156

136:                                              ; preds = %126
  %137 = load i32, i32* %11, align 4
  %138 = sext i32 %137 to i64
  %139 = getelementptr inbounds [10000 x i32], [10000 x i32]* %3, i64 0, i64 %138
  %140 = load i32, i32* %139, align 4
  %141 = icmp eq i32 %140, 1
  br i1 %141, label %142, label %152

142:                                              ; preds = %136
  %143 = load i32, i32* %7, align 4
  %144 = sext i32 %143 to i64
  %145 = getelementptr inbounds [1000 x [10000 x i8]], [1000 x [10000 x i8]]* %4, i64 0, i64 %144
  %146 = load i32, i32* %11, align 4
  %147 = sext i32 %146 to i64
  %148 = getelementptr inbounds [10000 x i8], [10000 x i8]* %145, i64 0, i64 %147
  %149 = load i8, i8* %148, align 1
  %150 = sext i8 %149 to i32
  %151 = call i32 (i8*, ...) @printf(i8* getelementptr inbounds ([4 x i8], [4 x i8]* @.str.3, i64 0, i64 0), i32 %150)
  store i32 0, i32* %5, align 4
  br label %156

152:                                              ; preds = %136
  br label %153

153:                                              ; preds = %152
  %154 = load i32, i32* %11, align 4
  %155 = add nsw i32 %154, 1
  store i32 %155, i32* %11, align 4
  br label %126

156:                                              ; preds = %142, %126
  br label %157

157:                                              ; preds = %156, %123
  br label %158

158:                                              ; preds = %157
  %159 = load i32, i32* %7, align 4
  %160 = add nsw i32 %159, 1
  store i32 %160, i32* %7, align 4
  br label %28

161:                                              ; preds = %28
  ret i32 0
}

declare dso_local i32 @__isoc99_scanf(i8*, ...) #1

; Function Attrs: nounwind readonly
declare dso_local i64 @strlen(i8*) #2

declare dso_local i32 @printf(i8*, ...) #1


!llvm.module.flags = !{!0}
!llvm.ident = !{!1}

!0 = !{i32 1, !"wchar_size", i32 4}
!1 = !{!"clang version 10.0.0-4ubuntu1 "}
